; Function Attrs: mustprogress uwtable
define hidden void @_ZN3ue216checkUnsupportedERKNS_9ComponentE(ptr noundef nonnull align 8 dereferenceable(16) %0) local_unnamed_addr #3 personality ptr @__gxx_personality_v0 {
  %2 = alloca %"class.ue2::UnsupportedVisitor", align 8
  call void @llvm.lifetime.start.p0(i64 8, ptr nonnull %2) #10
  call void @_ZN3ue228DefaultConstComponentVisitorC2Ev(ptr noundef nonnull align 8 dereferenceable(8) %2)
  store ptr getelementptr inbounds nuw inrange(-16, 352) (i8, ptr @_ZTVN3ue218UnsupportedVisitorE, i64 16), ptr %2, align 8
  %3 = load ptr, ptr %0, align 8
  %4 = getelementptr inbounds nuw i8, ptr %3, i64 32
  %5 = load ptr, ptr %4, align 8
  invoke void %5(ptr noundef nonnull align 8 dereferenceable(16) %0, ptr noundef nonnull align 8 dereferenceable(8) %2)
          to label %6 unwind label %7

6:                                                ; preds = %1
  call void @_ZN3ue228DefaultConstComponentVisitorD2Ev(ptr noundef nonnull align 8 dereferenceable(8) %2) #10
  call void @llvm.lifetime.end.p0(i64 8, ptr nonnull %2) #10
  ret void

7:                                                ; preds = %1
  %8 = landingpad { ptr, i32 }
          cleanup
  call void @_ZN3ue228DefaultConstComponentVisitorD2Ev(ptr noundef nonnull align 8 dereferenceable(8) %2) #10
  call void @llvm.lifetime.end.p0(i64 8, ptr nonnull %2) #10
  resume { ptr, i32 } %8
}